; ModuleID = '60/21.c'
source_filename = "60/21.c"
target datalayout = "e-m:e-p270:32:32-p271:32:32-p272:64:64-i64:64-f80:128-n8:16:32:64-S128"
target triple = "x86_64-pc-linux-gnu"

@.str = private unnamed_addr constant [3 x i8] c"%d\00", align 1
@.str.1 = private unnamed_addr constant [7 x i8] c"%d %d\0A\00", align 1
@.str.2 = private unnamed_addr constant [7 x i8] c"empty\0A\00", align 1

; Function Attrs: noinline nounwind uwtable
define dso_local void @main() #0 {
  %1 = alloca i32, align 4
  %2 = alloca i32, align 4
  %3 = alloca i32, align 4
  store i32 0, i32* %3, align 4
  %4 = call i32 (i8*, ...) @__isoc99_scanf(i8* getelementptr inbounds ([3 x i8], [3 x i8]* @.str, i64 0, i64 0), i32* %1)
  store i32 4, i32* %2, align 4
  br label %5

5:                                                ; preds = %26, %0
  %6 = load i32, i32* %2, align 4
  %7 = load i32, i32* %1, align 4
  %8 = icmp sle i32 %6, %7
  br i1 %8, label %9, label %29

9:                                                ; preds = %5
  %10 = load i32, i32* %2, align 4
  %11 = sub nsw i32 %10, 2
  %12 = call i32 @f(i32 %11)
  %13 = icmp eq i32 %12, 1
  br i1 %13, label %14, label %25

14:                                               ; preds = %9
  %15 = load i32, i32* %2, align 4
  %16 = call i32 @f(i32 %15)
  %17 = icmp eq i32 %16, 1
  br i1 %17, label %18, label %25

18:                                               ; preds = %14
  %19 = load i32, i32* %2, align 4
  %20 = sub nsw i32 %19, 2
  %21 = load i32, i32* %2, align 4
  %22 = call i32 (i8*, ...) @printf(i8* getelementptr inbounds ([7 x i8], [7 x i8]* @.str.1, i64 0, i64 0), i32 %20, i32 %21)
  %23 = load i32, i32* %3, align 4
  %24 = add nsw i32 %23, 1
  store i32 %24, i32* %3, align 4
  br label %25

25:                                               ; preds = %18, %14, %9
  br label %26

26:                                               ; preds = %25
  %27 = load i32, i32* %2, align 4
  %28 = add nsw i32 %27, 1
  store i32 %28, i32* %2, align 4
  br label %5

29:                                               ; preds = %5
  %30 = load i32, i32* %3, align 4
  %31 = icmp eq i32 %30, 0
  br i1 %31, label %32, label %34

32:                                               ; preds = %29
  %33 = call i32 (i8*, ...) @printf(i8* getelementptr inbounds ([7 x i8], [7 x i8]* @.str.2, i64 0, i64 0))
  br label %34

34:                                               ; preds = %32, %29
  ret void
}

declare dso_local i32 @__isoc99_scanf(i8*, ...) #1

; Function Attrs: noinline nounwind uwtable
define dso_local i32 @f(i32 %0) #0 {
  %2 = alloca i32, align 4
  %3 = alloca i32, align 4
  %4 = alloca i32, align 4
  store i32 %0, i32* %3, align 4
  %5 = load i32, i32* %3, align 4
  %6 = icmp eq i32 %5, 2
  br i1 %6, label %7, label %8

7:                                                ; preds = %1
  store i32 1, i32* %2, align 4
  br label %35

8:                                                ; preds = %1
  store i32 2, i32* %4, align 4
  br label %9

9:                                                ; preds = %23, %8
  %10 = load i32, i32* %4, align 4
  %11 = sitofp i32 %10 to double
  %12 = load i32, i32* %3, align 4
  %13 = sitofp i32 %12 to double
  %14 = call double @sqrt(double %13) #3
  %15 = fcmp ole double %11, %14
  br i1 %15, label %16, label %26

16:                                               ; preds = %9
  %17 = load i32, i32* %3, align 4
  %18 = load i32, i32* %4, align 4
  %19 = srem i32 %17, %18
  %20 = icmp eq i32 %19, 0
  br i1 %20, label %21, label %22

21:                                               ; preds = %16
  br label %26

22:                                               ; preds = %16
  br label %23

23:                                               ; preds = %22
  %24 = load i32, i32* %4, align 4
  %25 = add nsw i32 %24, 1
  store i32 %25, i32* %4, align 4
  br label %9

26:                                               ; preds = %21, %9
  %27 = load i32, i32* %4, align 4
  %28 = sitofp i32 %27 to double
  %29 = load i32, i32* %3, align 4
  %30 = sitofp i32 %29 to double
  %31 = call double @sqrt(double %30) #3
  %32 = fcmp ogt double %28, %31
  br i1 %32, label %33, label %34

33:                                               ; preds = %26
  store i32 1, i32* %2, align 4
  br label %35

34:                                               ; preds = %26
  store i32 0, i32* %2, align 4
  br label %35

35:                                               ; preds = %34, %33, %7
  %36 = load i32, i32* %2, align 4
  ret i32 %36
}

declare dso_local i32 @printf(i8*, ...) #1

; Function Attrs: nounwind
declare dso_local double @sqrt(double) #2


!llvm.module.flags = !{!0}
!llvm.ident = !{!1}

!0 = !{i32 1, !"wchar_size", i32 4}
!1 = !{!"clang version 10.0.0-4ubuntu1 "}
